target datalayout = "e-m:e-p270:32:32-p271:32:32-p272:64:64-i64:64-i128:128-f80:128-n8:16:32:64-S128"
target triple = "x86_64-pc-linux-gnu"

; Function Attrs: mustprogress nounwind uwtable
define linkonce_odr noundef double @_ZSt3absd(double noundef %0) #1 comdat {
  %2 = alloca double, align 8
  store double %0, ptr %2, align 8
  %3 = load double, ptr %2, align 8
  %4 = call double @llvm.fabs.f64(double %3)
  ret double %4
}

; Function Attrs: mustprogress nounwind uwtable
define internal noundef double @_ZN2cvL6normL1IidEET0_PKT_S4_i(ptr noundef %0, ptr noundef %1, i32 noundef %2) #1 {
  %4 = alloca ptr, align 8
  %5 = alloca ptr, align 8
  %6 = alloca i32, align 4
  %7 = alloca double, align 8
  %8 = alloca i32, align 4
  %9 = alloca double, align 8
  store ptr %0, ptr %4, align 8
  store ptr %1, ptr %5, align 8
  store i32 %2, ptr %6, align 4
  store double 0.000000e+00, ptr %7, align 8
  store i32 0, ptr %8, align 4
  br label %10

10:                                               ; preds = %31, %3
  %11 = load i32, ptr %8, align 4
  %12 = load i32, ptr %6, align 4
  %13 = icmp slt i32 %11, %12
  br i1 %13, label %14, label %34

14:                                               ; preds = %10
  %15 = load ptr, ptr %4, align 8
  %16 = load i32, ptr %8, align 4
  %17 = sext i32 %16 to i64
  %18 = getelementptr inbounds i32, ptr %15, i64 %17
  %19 = load i32, ptr %18, align 4
  %20 = load ptr, ptr %5, align 8
  %21 = load i32, ptr %8, align 4
  %22 = sext i32 %21 to i64
  %23 = getelementptr inbounds i32, ptr %20, i64 %22
  %24 = load i32, ptr %23, align 4
  %25 = sub nsw i32 %19, %24
  %26 = sitofp i32 %25 to double
  store double %26, ptr %9, align 8
  %27 = load double, ptr %9, align 8
  %28 = call noundef double @_ZSt3absd(double noundef %27)
  %29 = load double, ptr %7, align 8
  %30 = fadd double %29, %28
  store double %30, ptr %7, align 8
  br label %31

31:                                               ; preds = %14
  %32 = load i32, ptr %8, align 4
  %33 = add nsw i32 %32, 1
  store i32 %33, ptr %8, align 4
  br label %10, !llvm.loop !126

34:                                               ; preds = %10
  %35 = load double, ptr %7, align 8
  ret double %35
}

; Function Attrs: mustprogress uwtable
define linkonce_odr hidden noundef i32 @_ZN2cv11normDiffL1_IidEEiPKT_S3_PKhPT0_ii(ptr noundef %0, ptr noundef %1, ptr noundef %2, ptr noundef %3, i32 noundef %4, i32 noundef %5) #0 comdat {
  %7 = alloca ptr, align 8
  %8 = alloca ptr, align 8
  %9 = alloca ptr, align 8
  %10 = alloca ptr, align 8
  %11 = alloca i32, align 4
  %12 = alloca i32, align 4
  %13 = alloca double, align 8
  %14 = alloca i32, align 4
  %15 = alloca i32, align 4
  store ptr %0, ptr %7, align 8
  store ptr %1, ptr %8, align 8
  store ptr %2, ptr %9, align 8
  store ptr %3, ptr %10, align 8
  store i32 %4, ptr %11, align 4
  store i32 %5, ptr %12, align 4
  %16 = load ptr, ptr %10, align 8
  %17 = load double, ptr %16, align 8
  store double %17, ptr %13, align 8
  %18 = load ptr, ptr %9, align 8
  %19 = icmp ne ptr %18, null
  br i1 %19, label %29, label %20

20:                                               ; preds = %6
  %21 = load ptr, ptr %7, align 8
  %22 = load ptr, ptr %8, align 8
  %23 = load i32, ptr %11, align 4
  %24 = load i32, ptr %12, align 4
  %25 = mul nsw i32 %23, %24
  %26 = call noundef double @_ZN2cvL6normL1IidEET0_PKT_S4_i(ptr noundef %21, ptr noundef %22, i32 noundef %25)
  %27 = load double, ptr %13, align 8
  %28 = fadd double %27, %26
  store double %28, ptr %13, align 8
  br label %79

29:                                               ; preds = %6
  store i32 0, ptr %14, align 4
  br label %30

30:                                               ; preds = %67, %29
  %31 = load i32, ptr %14, align 4
  %32 = load i32, ptr %11, align 4
  %33 = icmp slt i32 %31, %32
  br i1 %33, label %34, label %78

34:                                               ; preds = %30
  %35 = load ptr, ptr %9, align 8
  %36 = load i32, ptr %14, align 4
  %37 = sext i32 %36 to i64
  %38 = getelementptr inbounds i8, ptr %35, i64 %37
  %39 = load i8, ptr %38, align 1
  %40 = icmp ne i8 %39, 0
  br i1 %40, label %41, label %66

41:                                               ; preds = %34
  store i32 0, ptr %15, align 4
  br label %42

42:                                               ; preds = %62, %41
  %43 = load i32, ptr %15, align 4
  %44 = load i32, ptr %12, align 4
  %45 = icmp slt i32 %43, %44
  br i1 %45, label %46, label %65

46:                                               ; preds = %42
  %47 = load ptr, ptr %7, align 8
  %48 = load i32, ptr %15, align 4
  %49 = sext i32 %48 to i64
  %50 = getelementptr inbounds i32, ptr %47, i64 %49
  %51 = load i32, ptr %50, align 4
  %52 = load ptr, ptr %8, align 8
  %53 = load i32, ptr %15, align 4
  %54 = sext i32 %53 to i64
  %55 = getelementptr inbounds i32, ptr %52, i64 %54
  %56 = load i32, ptr %55, align 4
  %57 = sub nsw i32 %51, %56
  %58 = call i32 @llvm.abs.i32(i32 %57, i1 true)
  %59 = sitofp i32 %58 to double
  %60 = load double, ptr %13, align 8
  %61 = fadd double %60, %59
  store double %61, ptr %13, align 8
  br label %62

62:                                               ; preds = %46
  %63 = load i32, ptr %15, align 4
  %64 = add nsw i32 %63, 1
  store i32 %64, ptr %15, align 4
  br label %42, !llvm.loop !124

65:                                               ; preds = %42
  br label %66

66:                                               ; preds = %65, %34
  br label %67

67:                                               ; preds = %66
  %68 = load i32, ptr %14, align 4
  %69 = add nsw i32 %68, 1
  store i32 %69, ptr %14, align 4
  %70 = load i32, ptr %12, align 4
  %71 = load ptr, ptr %7, align 8
  %72 = sext i32 %70 to i64
  %73 = getelementptr inbounds i32, ptr %71, i64 %72
  store ptr %73, ptr %7, align 8
  %74 = load i32, ptr %12, align 4
  %75 = load ptr, ptr %8, align 8
  %76 = sext i32 %74 to i64
  %77 = getelementptr inbounds i32, ptr %75, i64 %76
  store ptr %77, ptr %8, align 8
  br label %30, !llvm.loop !125

78:                                               ; preds = %30
  br label %79

79:                                               ; preds = %78, %20
  %80 = load double, ptr %13, align 8
  %81 = load ptr, ptr %10, align 8
  store double %80, ptr %81, align 8
  ret i32 0
}

; Function Attrs: mustprogress uwtable
define internal noundef i32 @_ZN2cvL14normDiffL1_32sEPKiS1_PKhPdii(ptr noundef %0, ptr noundef %1, ptr noundef %2, ptr noundef %3, i32 noundef %4, i32 noundef %5) #0 {
  %7 = alloca ptr, align 8
  %8 = alloca ptr, align 8
  %9 = alloca ptr, align 8
  %10 = alloca ptr, align 8
  %11 = alloca i32, align 4
  %12 = alloca i32, align 4
  store ptr %0, ptr %7, align 8
  store ptr %1, ptr %8, align 8
  store ptr %2, ptr %9, align 8
  store ptr %3, ptr %10, align 8
  store i32 %4, ptr %11, align 4
  store i32 %5, ptr %12, align 4
  %13 = load ptr, ptr %7, align 8
  %14 = load ptr, ptr %8, align 8
  %15 = load ptr, ptr %9, align 8
  %16 = load ptr, ptr %10, align 8
  %17 = load i32, ptr %11, align 4
  %18 = load i32, ptr %12, align 4
  %19 = call noundef i32 @_ZN2cv11normDiffL1_IidEEiPKT_S3_PKhPT0_ii(ptr noundef %13, ptr noundef %14, ptr noundef %15, ptr noundef %16, i32 noundef %17, i32 noundef %18)
  ret i32 %19
}