; Function Attrs: mustprogress nofree norecurse nosync nounwind memory(argmem: readwrite) uwtable
define internal noundef i32 @_ZN2cvL14normDiffL1_32sEPKiS1_PKhPdii(ptr noundef readonly captures(none) %0, ptr noundef readonly captures(none) %1, ptr noundef readonly %2, ptr noundef captures(none) %3, i32 noundef %4, i32 noundef %5) #6 {
  %7 = load double, ptr %3, align 8
  %.not.i = icmp eq ptr %2, null
  br i1 %.not.i, label %23, label %.preheader31.i

.preheader31.i:                                   ; preds = %6
  %8 = icmp sgt i32 %4, 0
  br i1 %8, label %.lr.ph39.i, label %_ZN2cv11normDiffL1_IidEEiPKT_S3_PKhPT0_ii.exit

.lr.ph39.i:                                       ; preds = %.preheader31.i
  %9 = icmp sgt i32 %5, 0
  %10 = sext i32 %5 to i64
  br i1 %9, label %.lr.ph39.split.us.preheader.i, label %_ZN2cv11normDiffL1_IidEEiPKT_S3_PKhPT0_ii.exit

.lr.ph39.split.us.preheader.i:                    ; preds = %.lr.ph39.i
  %wide.trip.count47.i = zext nneg i32 %4 to i64
  %wide.trip.count.i = zext nneg i32 %5 to i64
  br label %.lr.ph39.split.us.i

.lr.ph39.split.us.i:                              ; preds = %..loopexit_crit_edge.us.i, %.lr.ph39.split.us.preheader.i
  %indvars.iv44.i = phi i64 [ 0, %.lr.ph39.split.us.preheader.i ], [ %indvars.iv.next45.i, %..loopexit_crit_edge.us.i ]
  %.137.us.i = phi double [ %7, %.lr.ph39.split.us.preheader.i ], [ %.3.us.i, %..loopexit_crit_edge.us.i ]
  %.02736.us.i = phi ptr [ %0, %.lr.ph39.split.us.preheader.i ], [ %21, %..loopexit_crit_edge.us.i ]
  %.02835.us.i = phi ptr [ %1, %.lr.ph39.split.us.preheader.i ], [ %22, %..loopexit_crit_edge.us.i ]
  %11 = getelementptr inbounds nuw i8, ptr %2, i64 %indvars.iv44.i
  %12 = load i8, ptr %11, align 1
  %.not30.us.i = icmp eq i8 %12, 0
  br i1 %.not30.us.i, label %..loopexit_crit_edge.us.i, label %.preheader.us.i

.preheader.us.i:                                  ; preds = %.lr.ph39.split.us.i, %.preheader.us.i
  %indvars.iv.i = phi i64 [ %indvars.iv.next.i, %.preheader.us.i ], [ 0, %.lr.ph39.split.us.i ]
  %.233.us.i = phi double [ %20, %.preheader.us.i ], [ %.137.us.i, %.lr.ph39.split.us.i ]
  %13 = getelementptr inbounds nuw i32, ptr %.02736.us.i, i64 %indvars.iv.i
  %14 = load i32, ptr %13, align 4
  %15 = getelementptr inbounds nuw i32, ptr %.02835.us.i, i64 %indvars.iv.i
  %16 = load i32, ptr %15, align 4
  %17 = sub nsw i32 %14, %16
  %18 = tail call i32 @llvm.abs.i32(i32 %17, i1 true)
  %19 = uitofp nneg i32 %18 to double
  %20 = fadd double %.233.us.i, %19
  %indvars.iv.next.i = add nuw nsw i64 %indvars.iv.i, 1
  %exitcond.not.i = icmp eq i64 %indvars.iv.next.i, %wide.trip.count.i
  br i1 %exitcond.not.i, label %..loopexit_crit_edge.us.i, label %.preheader.us.i, !llvm.loop !142

..loopexit_crit_edge.us.i:                        ; preds = %.preheader.us.i, %.lr.ph39.split.us.i
  %.3.us.i = phi double [ %.137.us.i, %.lr.ph39.split.us.i ], [ %20, %.preheader.us.i ]
  %indvars.iv.next45.i = add nuw nsw i64 %indvars.iv44.i, 1
  %21 = getelementptr inbounds nuw i32, ptr %.02736.us.i, i64 %10
  %22 = getelementptr inbounds nuw i32, ptr %.02835.us.i, i64 %10
  %exitcond48.not.i = icmp eq i64 %indvars.iv.next45.i, %wide.trip.count47.i
  br i1 %exitcond48.not.i, label %_ZN2cv11normDiffL1_IidEEiPKT_S3_PKhPT0_ii.exit, label %.lr.ph39.split.us.i, !llvm.loop !143

23:                                               ; preds = %6
  %24 = mul nsw i32 %5, %4
  %25 = icmp sgt i32 %24, 0
  br i1 %25, label %.lr.ph.preheader.i.i, label %_ZN2cvL6normL1IidEET0_PKT_S4_i.exit.i

.lr.ph.preheader.i.i:                             ; preds = %23
  %wide.trip.count.i.i = zext nneg i32 %24 to i64
  br label %.lr.ph.i.i

.lr.ph.i.i:                                       ; preds = %.lr.ph.i.i, %.lr.ph.preheader.i.i
  %indvars.iv.i.i = phi i64 [ 0, %.lr.ph.preheader.i.i ], [ %indvars.iv.next.i.i, %.lr.ph.i.i ]
  %.011.i.i = phi double [ 0.000000e+00, %.lr.ph.preheader.i.i ], [ %33, %.lr.ph.i.i ]
  %26 = getelementptr inbounds nuw i32, ptr %0, i64 %indvars.iv.i.i
  %27 = load i32, ptr %26, align 4
  %28 = getelementptr inbounds nuw i32, ptr %1, i64 %indvars.iv.i.i
  %29 = load i32, ptr %28, align 4
  %30 = sub nsw i32 %27, %29
  %31 = sitofp i32 %30 to double
  %32 = tail call noundef double @llvm.fabs.f64(double %31)
  %33 = fadd double %.011.i.i, %32
  %indvars.iv.next.i.i = add nuw nsw i64 %indvars.iv.i.i, 1
  %exitcond.not.i.i = icmp eq i64 %indvars.iv.next.i.i, %wide.trip.count.i.i
  br i1 %exitcond.not.i.i, label %_ZN2cvL6normL1IidEET0_PKT_S4_i.exit.i, label %.lr.ph.i.i, !llvm.loop !144

_ZN2cvL6normL1IidEET0_PKT_S4_i.exit.i:            ; preds = %.lr.ph.i.i, %23
  %.0.lcssa.i.i = phi double [ 0.000000e+00, %23 ], [ %33, %.lr.ph.i.i ]
  %34 = fadd double %7, %.0.lcssa.i.i
  br label %_ZN2cv11normDiffL1_IidEEiPKT_S3_PKhPT0_ii.exit

_ZN2cv11normDiffL1_IidEEiPKT_S3_PKhPT0_ii.exit:   ; preds = %..loopexit_crit_edge.us.i, %.preheader31.i, %.lr.ph39.i, %_ZN2cvL6normL1IidEET0_PKT_S4_i.exit.i
  %.026.i = phi double [ %34, %_ZN2cvL6normL1IidEET0_PKT_S4_i.exit.i ], [ %7, %.preheader31.i ], [ %7, %.lr.ph39.i ], [ %.3.us.i, %..loopexit_crit_edge.us.i ]
  store double %.026.i, ptr %3, align 8
  ret i32 0
}